ccopy_reg
_reconstructor
p0
(ccontur.conturPoint
conturPoint
p1
c__builtin__
object
p2
Ntp3
Rp4
(dp5
S'_subpool'
p6
S''
p7
sS'p_b'
p8
I0
sS'_tags'
p9
V/ATLAS_2016_I1502620_Z_MU/d12-x01-y02
p10
sS'_pools'
p11
VATLAS_7_Zjj_MU
p12
sS'counts'
p13
(dp14
S'meas'
p15
(lp16
F20150.96240000002
asS'bg'
p17
(lp18
F20150.96240000002
asS'sErr'
p19
(lp20
F0.0
asS'measErr'
p21
(lp22
F397.59741200000036
asS's'
p23
(lp24
F0.0
asS'bgErr'
p25
(lp26
F0.0
asS'kev'
p27
(lp28
F0.0
asS'isRatio'
p29
(lp30
I00
assS'p_sb'
p31
I0
sS'CLs'
p32
I0
sb.