ccopy_reg
_reconstructor
p0
(ccontur.conturPoint
conturPoint
p1
c__builtin__
object
p2
Ntp3
Rp4
(dp5
S'_subpool'
p6
S''
p7
sS'p_b'
p8
F1.0
sS'_tags'
p9
V/ATLAS_2015_I1345452/d02-x01-y02
p10
sS'_pools'
p11
VATLAS_7_Wjj
p12
sS'counts'
p13
(dp14
S'meas'
p15
(lp16
F276.0
asS'bg'
p17
(lp18
F276.0
asS'sErr'
p19
(lp20
F32.260668988723715
asS'measErr'
p21
(lp22
F69.99470400000001
asS's'
p23
(lp24
F62.55231799999999
asS'bgErr'
p25
(lp26
F0.0
asS'kev'
p27
(lp28
F3.999999411692552
asS'isRatio'
p29
(lp30
I00
assS'p_sb'
p31
F1.0
sS'CLs'
p32
F0.516327
sb.