ccopy_reg
_reconstructor
p0
(ccontur.conturPoint
conturPoint
p1
c__builtin__
object
p2
Ntp3
Rp4
(dp5
S'_subpool'
p6
S''
p7
sS'p_b'
p8
F1.0
sS'_tags'
p9
V/CMS_2013_I1224539_WJET/d74-x01-y01
p10
sS'_pools'
p11
VCMS_7_Wjj
p12
sS'counts'
p13
(dp14
S'meas'
p15
(lp16
F15.099450000000001
asS'bg'
p17
(lp18
F15.099450000000001
asS'sErr'
p19
(lp20
F17.490768958354064
asS'measErr'
p21
(lp22
F5.96248535
asS's'
p23
(lp24
F16.997913300208502
asS'bgErr'
p25
(lp26
F0.0
asS'kev'
p27
(lp28
F0.9999999000000003
asS'isRatio'
p29
(lp30
I00
assS'p_sb'
p31
F1.0
sS'CLs'
p32
F0.470696
sb.