ccopy_reg
_reconstructor
p0
(ccontur.conturPoint
conturPoint
p1
c__builtin__
object
p2
Ntp3
Rp4
(dp5
S'_subpool'
p6
S''
p7
sS'p_b'
p8
F1.0
sS'_tags'
p9
V/LHCB_2012_I1208102/d03-x01-y01
p10
sS'_pools'
p11
VLHCB_7_Zjj_EL
p12
sS'counts'
p13
(dp14
S'meas'
p15
(lp16
F20146.079999999994
asS'bg'
p17
(lp18
F20146.079999999994
asS'sErr'
p19
(lp20
F0.14899514269611538
asS'measErr'
p21
(lp22
F3678.987115199999
asS's'
p23
(lp24
F0.021727469398911316
asS'bgErr'
p25
(lp26
F0.0
asS'kev'
p27
(lp28
F0.9999999999999999
asS'isRatio'
p29
(lp30
I00
assS'p_sb'
p31
F1.0
sS'CLs'
p32
F5e-06
sb.